target datalayout = "e-m:e-p270:32:32-p271:32:32-p272:64:64-i64:64-i128:128-f80:128-n8:16:32:64-S128"
target triple = "x86_64-pc-linux-gnu"

%"class.net::Cubic" = type { ptr, i32, %"class.net::QuicTime", %"class.net::QuicTime", %"class.net::QuicTime", i64, i64, i64, i64, i64, i32, i64 }
%"class.net::QuicTime" = type { i64 }

; Function Attrs: inlinehint mustprogress nounwind uwtable
define linkonce_odr void @_ZN3net8QuicTimeC2El(ptr noundef nonnull align 8 dereferenceable(8) %0, i64 noundef %1) unnamed_addr #5 comdat align 2 {
  %3 = alloca ptr, align 8
  %4 = alloca i64, align 8
  store ptr %0, ptr %3, align 8, !tbaa !36
  store i64 %1, ptr %4, align 8, !tbaa !17
  %5 = load ptr, ptr %3, align 8
  %6 = getelementptr inbounds nuw %"class.net::QuicTime", ptr %5, i32 0, i32 0
  %7 = load i64, ptr %4, align 8, !tbaa !17
  store i64 %7, ptr %6, align 8, !tbaa !33
  ret void
}

; Function Attrs: mustprogress nounwind uwtable
define noundef float @_ZNK3net5Cubic4BetaEv(ptr noundef nonnull align 8 dereferenceable(96) %0) #2 align 2 {
  %2 = alloca ptr, align 8
  store ptr %0, ptr %2, align 8, !tbaa !3
  %3 = load ptr, ptr %2, align 8
  %4 = getelementptr inbounds nuw %"class.net::Cubic", ptr %3, i32 0, i32 1
  %5 = load i32, ptr %4, align 8, !tbaa !15
  %6 = sub nsw i32 %5, 1
  %7 = sitofp i32 %6 to float
  %8 = fadd float %7, 0x3FE6666660000000
  %9 = getelementptr inbounds nuw %"class.net::Cubic", ptr %3, i32 0, i32 1
  %10 = load i32, ptr %9, align 8, !tbaa !15
  %11 = sitofp i32 %10 to float
  %12 = fdiv float %8, %11
  ret float %12
}

; Function Attrs: inlinehint mustprogress uwtable
define linkonce_odr i64 @_ZN3net8QuicTime4ZeroEv() #1 comdat align 2 {
  %1 = alloca %"class.net::QuicTime", align 8
  call void @_ZN3net8QuicTimeC2El(ptr noundef nonnull align 8 dereferenceable(8) %1, i64 noundef 0)
  %2 = getelementptr inbounds nuw %"class.net::QuicTime", ptr %1, i32 0, i32 0
  %3 = load i64, ptr %2, align 8
  ret i64 %3
}

; Function Attrs: mustprogress uwtable
define noundef i64 @_ZN3net5Cubic31CongestionWindowAfterPacketLossEm(ptr noundef nonnull align 8 dereferenceable(96) %0, i64 noundef %1) #0 align 2 {
  %3 = alloca ptr, align 8
  %4 = alloca i64, align 8
  %5 = alloca %"class.net::QuicTime", align 8
  store ptr %0, ptr %3, align 8, !tbaa !3
  store i64 %1, ptr %4, align 8, !tbaa !17
  %6 = load ptr, ptr %3, align 8
  %7 = load i64, ptr %4, align 8, !tbaa !17
  %8 = getelementptr inbounds nuw %"class.net::Cubic", ptr %6, i32 0, i32 6
  %9 = load i64, ptr %8, align 8, !tbaa !19
  %10 = icmp ult i64 %7, %9
  br i1 %10, label %11, label %18

11:                                               ; preds = %2
  %12 = load i64, ptr %4, align 8, !tbaa !17
  %13 = uitofp i64 %12 to float
  %14 = fmul float 0x3FEB333340000000, %13
  %15 = fptosi float %14 to i32
  %16 = sext i32 %15 to i64
  %17 = getelementptr inbounds nuw %"class.net::Cubic", ptr %6, i32 0, i32 6
  store i64 %16, ptr %17, align 8, !tbaa !19
  br label %21

18:                                               ; preds = %2
  %19 = load i64, ptr %4, align 8, !tbaa !17
  %20 = getelementptr inbounds nuw %"class.net::Cubic", ptr %6, i32 0, i32 6
  store i64 %19, ptr %20, align 8, !tbaa !19
  br label %21

21:                                               ; preds = %18, %11
  call void @llvm.lifetime.start.p0(i64 8, ptr %5) #9
  %22 = call i64 @_ZN3net8QuicTime4ZeroEv()
  %23 = getelementptr inbounds nuw %"class.net::QuicTime", ptr %5, i32 0, i32 0
  store i64 %22, ptr %23, align 8
  %24 = getelementptr inbounds nuw %"class.net::Cubic", ptr %6, i32 0, i32 2
  call void @llvm.memcpy.p0.p0.i64(ptr align 8 %24, ptr align 8 %5, i64 8, i1 false), !tbaa.struct !16
  call void @llvm.lifetime.end.p0(i64 8, ptr %5) #9
  %25 = load i64, ptr %4, align 8, !tbaa !17
  %26 = uitofp i64 %25 to float
  %27 = call noundef float @_ZNK3net5Cubic4BetaEv(ptr noundef nonnull align 8 dereferenceable(96) %6)
  %28 = fmul float %26, %27
  %29 = fptosi float %28 to i32
  %30 = sext i32 %29 to i64
  ret i64 %30
}